target datalayout = "e-m:e-p270:32:32-p271:32:32-p272:64:64-i64:64-i128:128-f80:128-n8:16:32:64-S128"
target triple = "x86_64-pc-linux-gnu"

%class.btBU_Simplex1to4 = type { %class.btPolyhedralConvexAabbCachingShape.base, i32, [4 x %class.btVector3] }
%class.btPolyhedralConvexAabbCachingShape.base = type <{ %class.btPolyhedralConvexShape, %class.btVector3, %class.btVector3, i8 }>
%class.btPolyhedralConvexShape = type { %class.btConvexInternalShape, ptr }
%class.btConvexInternalShape = type { %class.btConvexShape, %class.btVector3, %class.btVector3, float, float }
%class.btConvexShape = type { %class.btCollisionShape }
%class.btCollisionShape = type { ptr, i32, ptr, i32, i32 }
%class.btVector3 = type { [4 x float] }

; Function Attrs: mustprogress uwtable
define dso_local void @_ZN16btBU_Simplex1to49addVertexERK9btVector3(ptr noundef nonnull align 8 dereferenceable(184) %0, ptr noundef nonnull align 4 dereferenceable(16) %1) #2 align 2 {
  %3 = alloca ptr, align 8
  %4 = alloca ptr, align 8
  store ptr %0, ptr %3, align 8, !tbaa !12
  store ptr %1, ptr %4, align 8, !tbaa !28
  %5 = load ptr, ptr %3, align 8
  %6 = load ptr, ptr %4, align 8, !tbaa !28
  %7 = getelementptr inbounds nuw %class.btBU_Simplex1to4, ptr %5, i32 0, i32 2
  %8 = getelementptr inbounds nuw %class.btBU_Simplex1to4, ptr %5, i32 0, i32 1
  %9 = load i32, ptr %8, align 4, !tbaa !16
  %10 = add nsw i32 %9, 1
  store i32 %10, ptr %8, align 4, !tbaa !16
  %11 = sext i32 %9 to i64
  %12 = getelementptr inbounds [4 x %class.btVector3], ptr %7, i64 0, i64 %11
  call void @llvm.memcpy.p0.p0.i64(ptr align 8 %12, ptr align 4 %6, i64 16, i1 false), !tbaa.struct !30
  call void @_ZN34btPolyhedralConvexAabbCachingShape15recalcLocalAabbEv(ptr noundef nonnull align 8 dereferenceable(113) %5)
  ret void
}

; Function Attrs: inlinehint mustprogress nounwind uwtable
define linkonce_odr dso_local void @_ZN9btVector3C2Ev(ptr noundef nonnull align 4 dereferenceable(16) %0) unnamed_addr #4 comdat align 2 {
  %2 = alloca ptr, align 8
  store ptr %0, ptr %2, align 8, !tbaa !28
  ret void
}

; Function Attrs: mustprogress uwtable
define dso_local void @_ZN16btBU_Simplex1to4C2ERK9btVector3(ptr noundef nonnull align 8 dereferenceable(184) %0, ptr noundef nonnull align 4 dereferenceable(16) %1) unnamed_addr #2 align 2 personality ptr @__gxx_personality_v0 {
  %3 = alloca ptr, align 8
  %4 = alloca ptr, align 8
  %5 = alloca ptr, align 8
  %6 = alloca i32, align 4
  store ptr %0, ptr %3, align 8, !tbaa !12
  store ptr %1, ptr %4, align 8, !tbaa !28
  %7 = load ptr, ptr %3, align 8
  call void @_ZN34btPolyhedralConvexAabbCachingShapeC2Ev(ptr noundef nonnull align 8 dereferenceable(113) %7)
  store ptr getelementptr inbounds inrange(-16, 264) ({ [35 x ptr] }, ptr @_ZTV16btBU_Simplex1to4, i32 0, i32 0, i32 2), ptr %7, align 8, !tbaa !14
  %8 = getelementptr inbounds nuw %class.btBU_Simplex1to4, ptr %7, i32 0, i32 1
  store i32 0, ptr %8, align 4, !tbaa !16
  %9 = getelementptr inbounds nuw %class.btBU_Simplex1to4, ptr %7, i32 0, i32 2
  %10 = getelementptr inbounds [4 x %class.btVector3], ptr %9, i32 0, i32 0
  %11 = getelementptr inbounds %class.btVector3, ptr %10, i64 4
  br label %12

12:                                               ; preds = %14, %2
  %13 = phi ptr [ %10, %2 ], [ %15, %14 ]
  invoke void @_ZN9btVector3C2Ev(ptr noundef nonnull align 4 dereferenceable(16) %13)
          to label %14 unwind label %21

14:                                               ; preds = %12
  %15 = getelementptr inbounds %class.btVector3, ptr %13, i64 1
  %16 = icmp eq ptr %15, %11
  br i1 %16, label %17, label %12

17:                                               ; preds = %14
  %18 = getelementptr inbounds nuw %class.btCollisionShape, ptr %7, i32 0, i32 1
  store i32 2, ptr %18, align 8, !tbaa !27
  %19 = load ptr, ptr %4, align 8, !tbaa !28
  invoke void @_ZN16btBU_Simplex1to49addVertexERK9btVector3(ptr noundef nonnull align 8 dereferenceable(184) %7, ptr noundef nonnull align 4 dereferenceable(16) %19)
          to label %20 unwind label %21

20:                                               ; preds = %17
  ret void

21:                                               ; preds = %17, %12
  %22 = landingpad { ptr, i32 }
          cleanup
  %23 = extractvalue { ptr, i32 } %22, 0
  store ptr %23, ptr %5, align 8
  %24 = extractvalue { ptr, i32 } %22, 1
  store i32 %24, ptr %6, align 4
  call void @_ZN23btPolyhedralConvexShapeD2Ev(ptr noundef nonnull align 8 dereferenceable(113) %7) #10
  br label %25

25:                                               ; preds = %21
  %26 = load ptr, ptr %5, align 8
  %27 = load i32, ptr %6, align 4
  %28 = insertvalue { ptr, i32 } poison, ptr %26, 0
  %29 = insertvalue { ptr, i32 } %28, i32 %27, 1
  resume { ptr, i32 } %29
}