; Function Attrs: mustprogress uwtable
define dso_local void @_ZN16btBU_Simplex1to4C2ERK9btVector3(ptr noundef nonnull align 8 dereferenceable(184) %0, ptr noundef nonnull readonly align 4 captures(none) dereferenceable(16) %1) unnamed_addr #0 align 2 personality ptr @__gxx_personality_v0 {
  tail call void @_ZN34btPolyhedralConvexAabbCachingShapeC2Ev(ptr noundef nonnull align 8 dereferenceable(113) %0)
  store ptr getelementptr inbounds nuw inrange(-16, 264) (i8, ptr @_ZTV16btBU_Simplex1to4, i64 16), ptr %0, align 8, !tbaa !4
  %3 = getelementptr inbounds nuw i8, ptr %0, i64 116
  %4 = getelementptr inbounds nuw i8, ptr %0, i64 8
  store i32 2, ptr %4, align 8, !tbaa !21
  %5 = getelementptr inbounds nuw i8, ptr %0, i64 120
  store i32 1, ptr %3, align 4, !tbaa !7
  tail call void @llvm.memcpy.p0.p0.i64(ptr noundef nonnull align 8 dereferenceable(16) %5, ptr noundef nonnull readonly align 4 dereferenceable(16) %1, i64 16, i1 false), !tbaa.struct !22
  invoke void @_ZN34btPolyhedralConvexAabbCachingShape15recalcLocalAabbEv(ptr noundef nonnull align 8 dereferenceable(184) %0)
          to label %_ZN16btBU_Simplex1to49addVertexERK9btVector3.exit unwind label %6

_ZN16btBU_Simplex1to49addVertexERK9btVector3.exit: ; preds = %2
  ret void

6:                                                ; preds = %2
  %7 = landingpad { ptr, i32 }
          cleanup
  tail call void @_ZN23btPolyhedralConvexShapeD2Ev(ptr noundef nonnull align 8 dereferenceable(113) %0) #12
  resume { ptr, i32 } %7
}